target datalayout = "e-m:e-p270:32:32-p271:32:32-p272:64:64-i64:64-i128:128-f80:128-n8:16:32:64-S128"
target triple = "x86_64-pc-linux-gnu"

%struct.CodedBitstreamType = type { i32, ptr, i64, ptr, ptr, ptr, ptr, ptr, ptr, ptr, ptr }
%struct.CodedBitstreamContext = type { ptr, ptr, ptr, ptr, i32, i32, i32, ptr, ptr, ptr, ptr, i64 }
%struct.CodedBitstreamFragment = type { ptr, i64, i64, ptr, i32, i32, ptr }
%struct.CodedBitstreamUnit = type { i32, ptr, i64, i64, ptr, ptr, ptr }

@.str.1 = private unnamed_addr constant [30 x i8] c"Assertion %s failed at %s:%d\0A\00", align 1
@.str.3 = private unnamed_addr constant [17 x i8] c"libavcodec/cbs.c\00", align 1
@.str.23 = private unnamed_addr constant [84 x i8] c"0 <= position && position < frag->nb_units && \22Unit to be deleted not in fragment.\22\00", align 1

; Function Attrs: nounwind uwtable
define internal void @cbs_unit_uninit(ptr noundef %0) #3 {
  %2 = alloca ptr, align 8
  store ptr %0, ptr %2, align 8, !tbaa !50
  %3 = load ptr, ptr %2, align 8, !tbaa !50
  %4 = getelementptr inbounds nuw %struct.CodedBitstreamUnit, ptr %3, i32 0, i32 6
  call void @av_refstruct_unref(ptr noundef %4)
  %5 = load ptr, ptr %2, align 8, !tbaa !50
  %6 = getelementptr inbounds nuw %struct.CodedBitstreamUnit, ptr %5, i32 0, i32 5
  store ptr null, ptr %6, align 8, !tbaa !51
  %7 = load ptr, ptr %2, align 8, !tbaa !50
  %8 = getelementptr inbounds nuw %struct.CodedBitstreamUnit, ptr %7, i32 0, i32 4
  call void @av_buffer_unref(ptr noundef %8)
  %9 = load ptr, ptr %2, align 8, !tbaa !50
  %10 = getelementptr inbounds nuw %struct.CodedBitstreamUnit, ptr %9, i32 0, i32 1
  store ptr null, ptr %10, align 8, !tbaa !53
  %11 = load ptr, ptr %2, align 8, !tbaa !50
  %12 = getelementptr inbounds nuw %struct.CodedBitstreamUnit, ptr %11, i32 0, i32 2
  store i64 0, ptr %12, align 8, !tbaa !54
  %13 = load ptr, ptr %2, align 8, !tbaa !50
  %14 = getelementptr inbounds nuw %struct.CodedBitstreamUnit, ptr %13, i32 0, i32 3
  store i64 0, ptr %14, align 8, !tbaa !55
  ret void
}

; Function Attrs: nounwind uwtable
define void @ff_cbs_fragment_reset(ptr noundef %0) #3 {
  %2 = alloca ptr, align 8
  %3 = alloca i32, align 4
  store ptr %0, ptr %2, align 8, !tbaa !39
  call void @llvm.lifetime.start.p0(i64 4, ptr %3) #13
  store i32 0, ptr %3, align 4, !tbaa !10
  br label %4

4:                                                ; preds = %17, %1
  %5 = load i32, ptr %3, align 4, !tbaa !10
  %6 = load ptr, ptr %2, align 8, !tbaa !39
  %7 = getelementptr inbounds nuw %struct.CodedBitstreamFragment, ptr %6, i32 0, i32 4
  %8 = load i32, ptr %7, align 8, !tbaa !41
  %9 = icmp slt i32 %5, %8
  br i1 %9, label %10, label %20

10:                                               ; preds = %4
  %11 = load ptr, ptr %2, align 8, !tbaa !39
  %12 = getelementptr inbounds nuw %struct.CodedBitstreamFragment, ptr %11, i32 0, i32 6
  %13 = load ptr, ptr %12, align 8, !tbaa !45
  %14 = load i32, ptr %3, align 4, !tbaa !10
  %15 = sext i32 %14 to i64
  %16 = getelementptr inbounds %struct.CodedBitstreamUnit, ptr %13, i64 %15
  call void @cbs_unit_uninit(ptr noundef %16)
  br label %17

17:                                               ; preds = %10
  %18 = load i32, ptr %3, align 4, !tbaa !10
  %19 = add nsw i32 %18, 1
  store i32 %19, ptr %3, align 4, !tbaa !10
  br label %4, !llvm.loop !46

20:                                               ; preds = %4
  %21 = load ptr, ptr %2, align 8, !tbaa !39
  %22 = getelementptr inbounds nuw %struct.CodedBitstreamFragment, ptr %21, i32 0, i32 4
  store i32 0, ptr %22, align 8, !tbaa !41
  %23 = load ptr, ptr %2, align 8, !tbaa !39
  %24 = getelementptr inbounds nuw %struct.CodedBitstreamFragment, ptr %23, i32 0, i32 3
  call void @av_buffer_unref(ptr noundef %24)
  %25 = load ptr, ptr %2, align 8, !tbaa !39
  %26 = getelementptr inbounds nuw %struct.CodedBitstreamFragment, ptr %25, i32 0, i32 0
  store ptr null, ptr %26, align 8, !tbaa !47
  %27 = load ptr, ptr %2, align 8, !tbaa !39
  %28 = getelementptr inbounds nuw %struct.CodedBitstreamFragment, ptr %27, i32 0, i32 1
  store i64 0, ptr %28, align 8, !tbaa !48
  %29 = load ptr, ptr %2, align 8, !tbaa !39
  %30 = getelementptr inbounds nuw %struct.CodedBitstreamFragment, ptr %29, i32 0, i32 2
  store i64 0, ptr %30, align 8, !tbaa !49
  call void @llvm.lifetime.end.p0(i64 4, ptr %3) #13
  ret void
}

; Function Attrs: nounwind uwtable
define void @ff_cbs_delete_unit(ptr noundef %0, i32 noundef %1) #3 {
  %3 = alloca ptr, align 8
  %4 = alloca i32, align 4
  store ptr %0, ptr %3, align 8, !tbaa !39
  store i32 %1, ptr %4, align 4, !tbaa !10
  br label %5

5:                                                ; preds = %2
  %6 = load i32, ptr %4, align 4, !tbaa !10
  %7 = icmp sle i32 0, %6
  br i1 %7, label %8, label %15

8:                                                ; preds = %5
  %9 = load i32, ptr %4, align 4, !tbaa !10
  %10 = load ptr, ptr %3, align 8, !tbaa !39
  %11 = getelementptr inbounds nuw %struct.CodedBitstreamFragment, ptr %10, i32 0, i32 4
  %12 = load i32, ptr %11, align 8, !tbaa !41
  %13 = icmp slt i32 %9, %12
  br i1 %13, label %14, label %15

14:                                               ; preds = %8
  br i1 true, label %16, label %15

15:                                               ; preds = %14, %8, %5
  call void (ptr, i32, ptr, ...) @av_log(ptr noundef null, i32 noundef 0, ptr noundef @.str.1, ptr noundef @.str.23, ptr noundef @.str.3, i32 noundef 879)
  call void @abort() #14
  unreachable

16:                                               ; preds = %14
  br label %17

17:                                               ; preds = %16
  %18 = load ptr, ptr %3, align 8, !tbaa !39
  %19 = getelementptr inbounds nuw %struct.CodedBitstreamFragment, ptr %18, i32 0, i32 6
  %20 = load ptr, ptr %19, align 8, !tbaa !45
  %21 = load i32, ptr %4, align 4, !tbaa !10
  %22 = sext i32 %21 to i64
  %23 = getelementptr inbounds %struct.CodedBitstreamUnit, ptr %20, i64 %22
  call void @cbs_unit_uninit(ptr noundef %23)
  %24 = load ptr, ptr %3, align 8, !tbaa !39
  %25 = getelementptr inbounds nuw %struct.CodedBitstreamFragment, ptr %24, i32 0, i32 4
  %26 = load i32, ptr %25, align 8, !tbaa !41
  %27 = add nsw i32 %26, -1
  store i32 %27, ptr %25, align 8, !tbaa !41
  %28 = load ptr, ptr %3, align 8, !tbaa !39
  %29 = getelementptr inbounds nuw %struct.CodedBitstreamFragment, ptr %28, i32 0, i32 4
  %30 = load i32, ptr %29, align 8, !tbaa !41
  %31 = icmp sgt i32 %30, 0
  br i1 %31, label %32, label %53

32:                                               ; preds = %17
  %33 = load ptr, ptr %3, align 8, !tbaa !39
  %34 = getelementptr inbounds nuw %struct.CodedBitstreamFragment, ptr %33, i32 0, i32 6
  %35 = load ptr, ptr %34, align 8, !tbaa !45
  %36 = load i32, ptr %4, align 4, !tbaa !10
  %37 = sext i32 %36 to i64
  %38 = getelementptr inbounds %struct.CodedBitstreamUnit, ptr %35, i64 %37
  %39 = load ptr, ptr %3, align 8, !tbaa !39
  %40 = getelementptr inbounds nuw %struct.CodedBitstreamFragment, ptr %39, i32 0, i32 6
  %41 = load ptr, ptr %40, align 8, !tbaa !45
  %42 = load i32, ptr %4, align 4, !tbaa !10
  %43 = sext i32 %42 to i64
  %44 = getelementptr inbounds %struct.CodedBitstreamUnit, ptr %41, i64 %43
  %45 = getelementptr inbounds %struct.CodedBitstreamUnit, ptr %44, i64 1
  %46 = load ptr, ptr %3, align 8, !tbaa !39
  %47 = getelementptr inbounds nuw %struct.CodedBitstreamFragment, ptr %46, i32 0, i32 4
  %48 = load i32, ptr %47, align 8, !tbaa !41
  %49 = load i32, ptr %4, align 4, !tbaa !10
  %50 = sub nsw i32 %48, %49
  %51 = sext i32 %50 to i64
  %52 = mul i64 %51, 56
  call void @llvm.memmove.p0.p0.i64(ptr align 8 %38, ptr align 8 %45, i64 %52, i1 false)
  br label %53

53:                                               ; preds = %32, %17
  ret void
}

; Function Attrs: cold nounwind optsize uwtable
define void @ff_cbs_fragment_free(ptr noundef %0) #0 {
  %2 = alloca ptr, align 8
  store ptr %0, ptr %2, align 8, !tbaa !39
  %3 = load ptr, ptr %2, align 8, !tbaa !39
  call void @ff_cbs_fragment_reset(ptr noundef %3)
  %4 = load ptr, ptr %2, align 8, !tbaa !39
  %5 = getelementptr inbounds nuw %struct.CodedBitstreamFragment, ptr %4, i32 0, i32 6
  call void @av_freep(ptr noundef %5)
  %6 = load ptr, ptr %2, align 8, !tbaa !39
  %7 = getelementptr inbounds nuw %struct.CodedBitstreamFragment, ptr %6, i32 0, i32 5
  store i32 0, ptr %7, align 4, !tbaa !56
  ret void
}

; Function Attrs: nounwind uwtable
define void @ff_cbs_discard_units(ptr noundef %0, ptr noundef %1, i32 noundef %2, i32 noundef %3) #3 {
  %5 = alloca ptr, align 8
  %6 = alloca ptr, align 8
  %7 = alloca i32, align 4
  %8 = alloca i32, align 4
  %9 = alloca i32, align 4
  %10 = alloca i32, align 4
  store ptr %0, ptr %5, align 8, !tbaa !22
  store ptr %1, ptr %6, align 8, !tbaa !39
  store i32 %2, ptr %7, align 4, !tbaa !10
  store i32 %3, ptr %8, align 4, !tbaa !10
  %11 = load ptr, ptr %5, align 8, !tbaa !22
  %12 = getelementptr inbounds nuw %struct.CodedBitstreamContext, ptr %11, i32 0, i32 1
  %13 = load ptr, ptr %12, align 8, !tbaa !28
  %14 = getelementptr inbounds nuw %struct.CodedBitstreamType, ptr %13, i32 0, i32 7
  %15 = load ptr, ptr %14, align 8, !tbaa !131
  %16 = icmp ne ptr %15, null
  br i1 %16, label %18, label %17

17:                                               ; preds = %4
  br label %58

18:                                               ; preds = %4
  call void @llvm.lifetime.start.p0(i64 4, ptr %9) #13
  %19 = load ptr, ptr %6, align 8, !tbaa !39
  %20 = getelementptr inbounds nuw %struct.CodedBitstreamFragment, ptr %19, i32 0, i32 4
  %21 = load i32, ptr %20, align 8, !tbaa !41
  %22 = sub nsw i32 %21, 1
  store i32 %22, ptr %9, align 4, !tbaa !10
  br label %23

23:                                               ; preds = %53, %18
  %24 = load i32, ptr %9, align 4, !tbaa !10
  %25 = icmp sge i32 %24, 0
  br i1 %25, label %27, label %26

26:                                               ; preds = %23
  store i32 2, ptr %10, align 4
  br label %56

27:                                               ; preds = %23
  %28 = load ptr, ptr %5, align 8, !tbaa !22
  %29 = getelementptr inbounds nuw %struct.CodedBitstreamContext, ptr %28, i32 0, i32 1
  %30 = load ptr, ptr %29, align 8, !tbaa !28
  %31 = getelementptr inbounds nuw %struct.CodedBitstreamType, ptr %30, i32 0, i32 7
  %32 = load ptr, ptr %31, align 8, !tbaa !131
  %33 = load ptr, ptr %5, align 8, !tbaa !22
  %34 = load ptr, ptr %6, align 8, !tbaa !39
  %35 = getelementptr inbounds nuw %struct.CodedBitstreamFragment, ptr %34, i32 0, i32 6
  %36 = load ptr, ptr %35, align 8, !tbaa !45
  %37 = load i32, ptr %9, align 4, !tbaa !10
  %38 = sext i32 %37 to i64
  %39 = getelementptr inbounds %struct.CodedBitstreamUnit, ptr %36, i64 %38
  %40 = load i32, ptr %7, align 4, !tbaa !10
  %41 = call i32 %32(ptr noundef %33, ptr noundef %39, i32 noundef %40)
  %42 = icmp ne i32 %41, 0
  br i1 %42, label %43, label %52

43:                                               ; preds = %27
  %44 = load i32, ptr %8, align 4, !tbaa !10
  %45 = and i32 %44, 1
  %46 = icmp ne i32 %45, 0
  br i1 %46, label %49, label %47

47:                                               ; preds = %43
  %48 = load ptr, ptr %6, align 8, !tbaa !39
  call void @ff_cbs_fragment_free(ptr noundef %48) #17
  store i32 1, ptr %10, align 4
  br label %56

49:                                               ; preds = %43
  %50 = load ptr, ptr %6, align 8, !tbaa !39
  %51 = load i32, ptr %9, align 4, !tbaa !10
  call void @ff_cbs_delete_unit(ptr noundef %50, i32 noundef %51)
  br label %52

52:                                               ; preds = %49, %27
  br label %53

53:                                               ; preds = %52
  %54 = load i32, ptr %9, align 4, !tbaa !10
  %55 = add nsw i32 %54, -1
  store i32 %55, ptr %9, align 4, !tbaa !10
  br label %23, !llvm.loop !132

56:                                               ; preds = %47, %26
  call void @llvm.lifetime.end.p0(i64 4, ptr %9) #13
  %57 = load i32, ptr %10, align 4
  switch i32 %57, label %59 [
    i32 2, label %58
    i32 1, label %58
  ]

58:                                               ; preds = %17, %56, %56
  ret void

59:                                               ; preds = %56
  unreachable
}