; Function Attrs: nounwind uwtable
define void @ff_cbs_discard_units(ptr noundef %0, ptr noundef %1, i32 noundef %2, i32 noundef %3) local_unnamed_addr #3 {
  %5 = getelementptr inbounds nuw i8, ptr %0, i64 8
  %6 = load ptr, ptr %5, align 8, !tbaa !23
  %7 = getelementptr inbounds nuw i8, ptr %6, i64 56
  %8 = load ptr, ptr %7, align 8, !tbaa !120
  %.not = icmp eq ptr %8, null
  br i1 %.not, label %.loopexit, label %9

9:                                                ; preds = %4
  %10 = getelementptr inbounds nuw i8, ptr %1, i64 32
  %11 = load i32, ptr %10, align 8, !tbaa !34
  %12 = icmp sgt i32 %11, 0
  br i1 %12, label %.lr.ph, label %.loopexit

.lr.ph:                                           ; preds = %9
  %.016 = add nsw i32 %11, -1
  %13 = getelementptr inbounds nuw i8, ptr %1, i64 40
  %14 = and i32 %3, 1
  %.not13 = icmp eq i32 %14, 0
  %15 = zext nneg i32 %.016 to i64
  br i1 %.not13, label %.lr.ph.split.us, label %.lr.ph.split

.lr.ph.split.us:                                  ; preds = %.lr.ph, %ff_cbs_delete_unit.exit.us
  %indvars.iv21 = phi i64 [ %indvars.iv.next22, %ff_cbs_delete_unit.exit.us ], [ %15, %.lr.ph ]
  %16 = load ptr, ptr %5, align 8, !tbaa !23
  %17 = getelementptr inbounds nuw i8, ptr %16, i64 56
  %18 = load ptr, ptr %17, align 8, !tbaa !120
  %19 = load ptr, ptr %13, align 8, !tbaa !38
  %20 = getelementptr inbounds nuw %struct.CodedBitstreamUnit, ptr %19, i64 %indvars.iv21
  %21 = tail call i32 %18(ptr noundef nonnull %0, ptr noundef %20, i32 noundef %2) #10
  %.not12.us = icmp eq i32 %21, 0
  br i1 %.not12.us, label %ff_cbs_delete_unit.exit.us, label %.split.us

ff_cbs_delete_unit.exit.us:                       ; preds = %.lr.ph.split.us
  %indvars.iv.next22 = add nsw i64 %indvars.iv21, -1
  %22 = icmp sgt i64 %indvars.iv21, 0
  br i1 %22, label %.lr.ph.split.us, label %.loopexit, !llvm.loop !121

.lr.ph.split:                                     ; preds = %.lr.ph, %ff_cbs_delete_unit.exit
  %indvars.iv = phi i64 [ %indvars.iv.next, %ff_cbs_delete_unit.exit ], [ %15, %.lr.ph ]
  %.0.in17 = phi i32 [ %63, %ff_cbs_delete_unit.exit ], [ %11, %.lr.ph ]
  %23 = load ptr, ptr %5, align 8, !tbaa !23
  %24 = getelementptr inbounds nuw i8, ptr %23, i64 56
  %25 = load ptr, ptr %24, align 8, !tbaa !120
  %26 = load ptr, ptr %13, align 8, !tbaa !38
  %27 = getelementptr inbounds nuw %struct.CodedBitstreamUnit, ptr %26, i64 %indvars.iv
  %28 = tail call i32 %25(ptr noundef nonnull %0, ptr noundef %27, i32 noundef %2) #10
  %.not12 = icmp eq i32 %28, 0
  br i1 %.not12, label %ff_cbs_delete_unit.exit, label %29

29:                                               ; preds = %.lr.ph.split
  %30 = load i32, ptr %10, align 8, !tbaa !34
  %.not14 = icmp sgt i32 %.0.in17, %30
  br i1 %.not14, label %44, label %45

.split.us:                                        ; preds = %.lr.ph.split.us
  %31 = load i32, ptr %10, align 8, !tbaa !34
  %32 = icmp sgt i32 %31, 0
  br i1 %32, label %.lr.ph.i, label %ff_cbs_fragment_reset.exit

.lr.ph.i:                                         ; preds = %.split.us, %.lr.ph.i
  %indvars.iv.i = phi i64 [ %indvars.iv.next.i, %.lr.ph.i ], [ 0, %.split.us ]
  %33 = load ptr, ptr %13, align 8, !tbaa !38
  %34 = getelementptr inbounds nuw %struct.CodedBitstreamUnit, ptr %33, i64 %indvars.iv.i
  %35 = getelementptr inbounds nuw i8, ptr %34, i64 48
  tail call void @av_refstruct_unref(ptr noundef nonnull %35) #10
  %36 = getelementptr inbounds nuw i8, ptr %34, i64 40
  store ptr null, ptr %36, align 8, !tbaa !39
  %37 = getelementptr inbounds nuw i8, ptr %34, i64 32
  tail call void @av_buffer_unref(ptr noundef nonnull %37) #10
  %38 = getelementptr inbounds nuw i8, ptr %34, i64 8
  tail call void @llvm.memset.p0.i64(ptr noundef nonnull align 8 dereferenceable(24) %38, i8 0, i64 24, i1 false)
  %indvars.iv.next.i = add nuw nsw i64 %indvars.iv.i, 1
  %39 = load i32, ptr %10, align 8, !tbaa !34
  %40 = sext i32 %39 to i64
  %41 = icmp slt i64 %indvars.iv.next.i, %40
  br i1 %41, label %.lr.ph.i, label %ff_cbs_fragment_reset.exit, !llvm.loop !41

ff_cbs_fragment_reset.exit:                       ; preds = %.lr.ph.i, %.split.us
  store i32 0, ptr %10, align 8, !tbaa !34
  %42 = getelementptr inbounds nuw i8, ptr %1, i64 24
  tail call void @av_buffer_unref(ptr noundef nonnull %42) #10
  tail call void @llvm.memset.p0.i64(ptr noundef nonnull align 8 dereferenceable(24) %1, i8 0, i64 24, i1 false)
  tail call void @av_freep(ptr noundef nonnull %13) #10
  %43 = getelementptr inbounds nuw i8, ptr %1, i64 36
  store i32 0, ptr %43, align 4, !tbaa !42
  br label %.loopexit

44:                                               ; preds = %29
  tail call void (ptr, i32, ptr, ...) @av_log(ptr noundef null, i32 noundef 0, ptr noundef nonnull @.str.1, ptr noundef nonnull @.str.23, ptr noundef nonnull @.str.3, i32 noundef 879) #10
  tail call void @abort() #11
  unreachable

45:                                               ; preds = %29
  %46 = load ptr, ptr %13, align 8, !tbaa !38
  %47 = getelementptr inbounds nuw %struct.CodedBitstreamUnit, ptr %46, i64 %indvars.iv
  %48 = getelementptr inbounds nuw i8, ptr %47, i64 48
  tail call void @av_refstruct_unref(ptr noundef nonnull %48) #10
  %49 = getelementptr inbounds nuw i8, ptr %47, i64 40
  store ptr null, ptr %49, align 8, !tbaa !39
  %50 = getelementptr inbounds nuw i8, ptr %47, i64 32
  tail call void @av_buffer_unref(ptr noundef nonnull %50) #10
  %51 = getelementptr inbounds nuw i8, ptr %47, i64 8
  tail call void @llvm.memset.p0.i64(ptr noundef nonnull align 8 dereferenceable(24) %51, i8 0, i64 24, i1 false)
  %52 = load i32, ptr %10, align 8, !tbaa !34
  %53 = add nsw i32 %52, -1
  store i32 %53, ptr %10, align 8, !tbaa !34
  %54 = icmp sgt i32 %52, 1
  br i1 %54, label %55, label %ff_cbs_delete_unit.exit

55:                                               ; preds = %45
  %56 = load ptr, ptr %13, align 8, !tbaa !38
  %57 = getelementptr inbounds nuw %struct.CodedBitstreamUnit, ptr %56, i64 %indvars.iv
  %58 = getelementptr inbounds nuw i8, ptr %57, i64 56
  %59 = sub nsw i32 %52, %.0.in17
  %60 = sext i32 %59 to i64
  %61 = mul nsw i64 %60, 56
  tail call void @llvm.memmove.p0.p0.i64(ptr align 8 %57, ptr nonnull align 8 %58, i64 %61, i1 false)
  br label %ff_cbs_delete_unit.exit

ff_cbs_delete_unit.exit:                          ; preds = %55, %45, %.lr.ph.split
  %indvars.iv.next = add nsw i64 %indvars.iv, -1
  %62 = icmp sgt i64 %indvars.iv, 0
  %63 = trunc nuw nsw i64 %indvars.iv to i32
  br i1 %62, label %.lr.ph.split, label %.loopexit, !llvm.loop !121

.loopexit:                                        ; preds = %ff_cbs_delete_unit.exit, %ff_cbs_delete_unit.exit.us, %9, %ff_cbs_fragment_reset.exit, %4
  ret void
}